target datalayout = "e-m:e-p270:32:32-p271:32:32-p272:64:64-i64:64-i128:128-f80:128-n8:16:32:64-S128"
target triple = "x86_64-pc-linux-gnu"

%struct.MEMO = type { i64, i64, i64, i64, %union.anon.1 }
%union.anon.1 = type { i64 }

; Function Attrs: nounwind sspstrong uwtable
define dso_local i64 @rb_enum_values_pack(i32 noundef %0, ptr noundef %1) #0 {
  %3 = alloca i64, align 8
  %4 = alloca i32, align 4
  %5 = alloca ptr, align 8
  store i32 %0, ptr %4, align 4, !tbaa !7
  store ptr %1, ptr %5, align 8, !tbaa !11
  %6 = load i32, ptr %4, align 4, !tbaa !7
  %7 = icmp eq i32 %6, 0
  br i1 %7, label %8, label %9

8:                                                ; preds = %2
  store i64 4, ptr %3, align 8
  br label %21

9:                                                ; preds = %2
  %10 = load i32, ptr %4, align 4, !tbaa !7
  %11 = icmp eq i32 %10, 1
  br i1 %11, label %12, label %16

12:                                               ; preds = %9
  %13 = load ptr, ptr %5, align 8, !tbaa !11
  %14 = getelementptr i64, ptr %13, i64 0
  %15 = load i64, ptr %14, align 8, !tbaa !14
  store i64 %15, ptr %3, align 8
  br label %21

16:                                               ; preds = %9
  %17 = load i32, ptr %4, align 4, !tbaa !7
  %18 = sext i32 %17 to i64
  %19 = load ptr, ptr %5, align 8, !tbaa !11
  %20 = call i64 @rb_ary_new_from_values(i64 noundef %18, ptr noundef %19)
  store i64 %20, ptr %3, align 8
  br label %21

21:                                               ; preds = %16, %12, %8
  %22 = load i64, ptr %3, align 8
  ret i64 %22
}

; Function Attrs: nounwind sspstrong uwtable
define internal i64 @take_i(i64 noundef %0, i64 noundef %1, i32 noundef %2, ptr noundef %3, i64 noundef %4) #0 {
  %6 = alloca i64, align 8
  %7 = alloca i64, align 8
  %8 = alloca i32, align 4
  %9 = alloca ptr, align 8
  %10 = alloca i64, align 8
  %11 = alloca ptr, align 8
  store i64 %0, ptr %6, align 8, !tbaa !14
  store i64 %1, ptr %7, align 8, !tbaa !14
  store i32 %2, ptr %8, align 4, !tbaa !7
  store ptr %3, ptr %9, align 8, !tbaa !11
  store i64 %4, ptr %10, align 8, !tbaa !14
  call void @llvm.lifetime.start.p0(i64 8, ptr %11) #22
  %12 = load i64, ptr %7, align 8, !tbaa !14
  %13 = inttoptr i64 %12 to ptr
  store ptr %13, ptr %11, align 8, !tbaa !34
  %14 = load ptr, ptr %11, align 8, !tbaa !34
  %15 = getelementptr inbounds nuw %struct.MEMO, ptr %14, i32 0, i32 2
  %16 = load i64, ptr %15, align 8, !tbaa !46
  %17 = load i32, ptr %8, align 4, !tbaa !7
  %18 = load ptr, ptr %9, align 8, !tbaa !11
  %19 = call i64 @rb_enum_values_pack(i32 noundef %17, ptr noundef %18)
  %20 = call i64 @rb_ary_push(i64 noundef %16, i64 noundef %19)
  %21 = load ptr, ptr %11, align 8, !tbaa !34
  %22 = getelementptr inbounds nuw %struct.MEMO, ptr %21, i32 0, i32 4
  %23 = load i64, ptr %22, align 8, !tbaa !31
  %24 = add i64 %23, -1
  store i64 %24, ptr %22, align 8, !tbaa !31
  %25 = icmp eq i64 %24, 0
  br i1 %25, label %26, label %27

26:                                               ; preds = %5
  call void @rb_iter_break() #23
  unreachable

27:                                               ; preds = %5
  call void @llvm.lifetime.end.p0(i64 8, ptr %11) #22
  ret i64 4
}