; Function Attrs: nounwind sspstrong uwtable
define internal noundef i64 @take_i(i64 %0, i64 noundef %1, i32 noundef %2, ptr noundef %3, i64 %4) #0 {
  %6 = inttoptr i64 %1 to ptr
  %7 = getelementptr inbounds nuw i8, ptr %6, i64 16
  %8 = load i64, ptr %7, align 8, !tbaa !60
  switch i32 %2, label %11 [
    i32 0, label %rb_enum_values_pack.exit
    i32 1, label %9
  ]

9:                                                ; preds = %5
  %10 = load i64, ptr %3, align 8, !tbaa !7
  br label %rb_enum_values_pack.exit

11:                                               ; preds = %5
  %12 = sext i32 %2 to i64
  %13 = tail call i64 @rb_ary_new_from_values(i64 noundef %12, ptr noundef %3) #14
  br label %rb_enum_values_pack.exit

rb_enum_values_pack.exit:                         ; preds = %5, %9, %11
  %.0.i = phi i64 [ %10, %9 ], [ %13, %11 ], [ 4, %5 ]
  %14 = tail call i64 @rb_ary_push(i64 noundef %8, i64 noundef %.0.i) #14
  %15 = getelementptr inbounds nuw i8, ptr %6, i64 32
  %16 = load i64, ptr %15, align 8, !tbaa !22
  %17 = add i64 %16, -1
  store i64 %17, ptr %15, align 8, !tbaa !22
  %18 = icmp eq i64 %17, 0
  br i1 %18, label %19, label %20

19:                                               ; preds = %rb_enum_values_pack.exit
  tail call void @rb_iter_break() #15
  unreachable

20:                                               ; preds = %rb_enum_values_pack.exit
  ret i64 4
}